target datalayout = "e-m:e-p270:32:32-p271:32:32-p272:64:64-i64:64-i128:128-f80:128-n8:16:32:64-S128"
target triple = "x86_64-pc-linux-gnu"

%struct._grid = type { ptr, ptr, ptr, i32, ptr, ptr }
%struct.cell = type { %struct.gridpt, ptr, %struct.dtlink_s_ }
%struct.gridpt = type { i32, i32 }
%struct.dtlink_s_ = type { ptr, %union.anon.0 }
%union.anon.0 = type { ptr }
%struct.dt_s_ = type { ptr, ptr, %struct.Dtdata_t, ptr, i32, ptr, ptr, ptr }
%struct.Dtdata_t = type { i32, ptr, %union.anon, i32, i32, i32 }
%union.anon = type { ptr }

; Function Attrs: nounwind uwtable
define ptr @findGrid(ptr noundef %0, i32 noundef %1, i32 noundef %2) #0 {
  %4 = alloca ptr, align 8
  %5 = alloca i32, align 4
  %6 = alloca i32, align 4
  %7 = alloca %struct.cell, align 8
  store ptr %0, ptr %4, align 8, !tbaa !7
  store i32 %1, ptr %5, align 4, !tbaa !3
  store i32 %2, ptr %6, align 4, !tbaa !3
  call void @llvm.lifetime.start.p0(i64 32, ptr %7) #9
  %8 = load i32, ptr %5, align 4, !tbaa !3
  %9 = getelementptr inbounds nuw %struct.cell, ptr %7, i32 0, i32 0
  %10 = getelementptr inbounds nuw %struct.gridpt, ptr %9, i32 0, i32 0
  store i32 %8, ptr %10, align 8, !tbaa !38
  %11 = load i32, ptr %6, align 4, !tbaa !3
  %12 = getelementptr inbounds nuw %struct.cell, ptr %7, i32 0, i32 0
  %13 = getelementptr inbounds nuw %struct.gridpt, ptr %12, i32 0, i32 1
  store i32 %11, ptr %13, align 4, !tbaa !42
  %14 = load ptr, ptr %4, align 8, !tbaa !7
  %15 = getelementptr inbounds nuw %struct._grid, ptr %14, i32 0, i32 0
  %16 = load ptr, ptr %15, align 8, !tbaa !11
  %17 = getelementptr inbounds nuw %struct.dt_s_, ptr %16, i32 0, i32 0
  %18 = load ptr, ptr %17, align 8, !tbaa !29
  %19 = load ptr, ptr %4, align 8, !tbaa !7
  %20 = getelementptr inbounds nuw %struct._grid, ptr %19, i32 0, i32 0
  %21 = load ptr, ptr %20, align 8, !tbaa !11
  %22 = call ptr %18(ptr noundef %21, ptr noundef %7, i32 noundef 4)
  call void @llvm.lifetime.end.p0(i64 32, ptr %7) #9
  ret ptr %22
}