; Function Attrs: nounwind uwtable
define ptr @findGrid(ptr noundef readonly captures(none) %0, i32 noundef %1, i32 noundef %2) local_unnamed_addr #0 {
  %4 = alloca %struct.cell, align 8
  call void @llvm.lifetime.start.p0(i64 32, ptr nonnull %4) #13
  store i32 %1, ptr %4, align 8, !tbaa !30
  %5 = getelementptr inbounds nuw i8, ptr %4, i64 4
  store i32 %2, ptr %5, align 4, !tbaa !34
  %6 = load ptr, ptr %0, align 8, !tbaa !7
  %7 = load ptr, ptr %6, align 8, !tbaa !22
  %8 = call ptr %7(ptr noundef nonnull %6, ptr noundef nonnull %4, i32 noundef 4) #13
  call void @llvm.lifetime.end.p0(i64 32, ptr nonnull %4) #13
  ret ptr %8
}